SF:E:\Work\Programming\Rust\wonderswan\src\cpu.rs
FN:42,_RNvXNtCs7xho1sTY3gk_10wonderswan3cpuhINtNtCscuoSGdwqc8b_4core7convert7TryFromNtB2_12RegisterTypeE8try_from
FN:54,_RNvXs_NtCs7xho1sTY3gk_10wonderswan3cputINtNtCscuoSGdwqc8b_4core7convert7TryFromNtB4_12RegisterTypeE8try_from
FN:62,_RNvNtCs7xho1sTY3gk_10wonderswan3cpu6swap_h
FN:66,_RNvNtCs7xho1sTY3gk_10wonderswan3cpu6swap_l
FN:69,_RNvNtCs7xho1sTY3gk_10wonderswan3cpu6parity
FNDA:10,_RNvXNtCs7xho1sTY3gk_10wonderswan3cpuhINtNtCscuoSGdwqc8b_4core7convert7TryFromNtB2_12RegisterTypeE8try_from
FNDA:21,_RNvXs_NtCs7xho1sTY3gk_10wonderswan3cputINtNtCscuoSGdwqc8b_4core7convert7TryFromNtB4_12RegisterTypeE8try_from
FNDA:3,_RNvNtCs7xho1sTY3gk_10wonderswan3cpu6swap_h
FNDA:17,_RNvNtCs7xho1sTY3gk_10wonderswan3cpu6swap_l
FNDA:12,_RNvNtCs7xho1sTY3gk_10wonderswan3cpu6parity
FNF:5
FNH:5
DA:42,10
DA:43,10
DA:44,0
DA:45,0
DA:46,10
DA:48,10
DA:54,21
DA:55,21
DA:56,21
DA:57,0
DA:59,21
DA:62,3
DA:63,3
DA:64,3
DA:66,17
DA:67,17
DA:68,17
DA:69,12
DA:70,12
DA:71,108
DA:72,96
DA:73,96
DA:74,12
DA:75,12
BRF:0
BRH:0
LF:24
LH:21
end_of_record
SF:E:\Work\Programming\Rust\wonderswan\src\cpu\opcode.rs
FN:22,_RNvMNtNtCs7xho1sTY3gk_10wonderswan3cpu6opcodeNtB2_6OpCode8one_byte
FN:26,_RNvMNtNtCs7xho1sTY3gk_10wonderswan3cpu6opcodeNtB2_6OpCode10three_term
FN:30,_RNvMNtNtCs7xho1sTY3gk_10wonderswan3cpu6opcodeNtB2_6OpCode7invalid
FN:34,_RNvMNtNtCs7xho1sTY3gk_10wonderswan3cpu6opcodeNtB2_6OpCode8two_byte
FN:38,_RNvMNtNtCs7xho1sTY3gk_10wonderswan3cpu6opcodeNtB2_6OpCode4fpo1
FN:44,_RNvMs_NtNtCs7xho1sTY3gk_10wonderswan3cpu6opcodeNtB4_9SubOpCode6normal
FN:48,_RNvMs_NtNtCs7xho1sTY3gk_10wonderswan3cpu6opcodeNtB4_9SubOpCode9overwrite
FN:53,_RNCNvNtNtCs7xho1sTY3gk_10wonderswan3cpu6opcode12CPU_OP_CODES0B7_
FN:346,_RNCNvNtNtCs7xho1sTY3gk_10wonderswan3cpu6opcode15IMMEDIATE_GROUP0B7_
FN:360,_RNCNvNtNtCs7xho1sTY3gk_10wonderswan3cpu6opcode11SHIFT_GROUP0B7_
FN:374,_RNCNvNtNtCs7xho1sTY3gk_10wonderswan3cpu6opcode7GROUP_10B7_
FN:388,_RNCNvNtNtCs7xho1sTY3gk_10wonderswan3cpu6opcode7GROUP_20B7_
FNDA:223,_RNvMNtNtCs7xho1sTY3gk_10wonderswan3cpu6opcodeNtB2_6OpCode8one_byte
FNDA:4,_RNvMNtNtCs7xho1sTY3gk_10wonderswan3cpu6opcodeNtB2_6OpCode10three_term
FNDA:7,_RNvMNtNtCs7xho1sTY3gk_10wonderswan3cpu6opcodeNtB2_6OpCode7invalid
FNDA:14,_RNvMNtNtCs7xho1sTY3gk_10wonderswan3cpu6opcodeNtB2_6OpCode8two_byte
FNDA:8,_RNvMNtNtCs7xho1sTY3gk_10wonderswan3cpu6opcodeNtB2_6OpCode4fpo1
FNDA:0,_RNvMs_NtNtCs7xho1sTY3gk_10wonderswan3cpu6opcodeNtB4_9SubOpCode6normal
FNDA:0,_RNvMs_NtNtCs7xho1sTY3gk_10wonderswan3cpu6opcodeNtB4_9SubOpCode9overwrite
FNDA:1,_RNCNvNtNtCs7xho1sTY3gk_10wonderswan3cpu6opcode12CPU_OP_CODES0B7_
FNDA:0,_RNCNvNtNtCs7xho1sTY3gk_10wonderswan3cpu6opcode15IMMEDIATE_GROUP0B7_
FNDA:0,_RNCNvNtNtCs7xho1sTY3gk_10wonderswan3cpu6opcode11SHIFT_GROUP0B7_
FNDA:0,_RNCNvNtNtCs7xho1sTY3gk_10wonderswan3cpu6opcode7GROUP_10B7_
FNDA:0,_RNCNvNtNtCs7xho1sTY3gk_10wonderswan3cpu6opcode7GROUP_20B7_
FNF:12
FNH:6
DA:22,223
DA:23,223
DA:24,223
DA:26,4
DA:27,4
DA:28,4
DA:30,7
DA:31,7
DA:32,7
DA:34,14
DA:35,14
DA:36,14
DA:38,8
DA:39,8
DA:40,8
DA:44,0
DA:45,0
DA:46,0
DA:48,0
DA:49,0
DA:50,0
DA:53,1
DA:54,1
DA:55,1
DA:56,1
DA:57,1
DA:58,1
DA:59,1
DA:60,1
DA:61,1
DA:62,1
DA:63,1
DA:64,1
DA:65,1
DA:66,1
DA:67,1
DA:68,1
DA:69,1
DA:70,1
DA:71,1
DA:72,1
DA:73,1
DA:74,1
DA:75,1
DA:76,1
DA:77,1
DA:78,1
DA:79,1
DA:80,1
DA:81,1
DA:82,1
DA:83,1
DA:84,1
DA:85,1
DA:86,1
DA:87,1
DA:88,1
DA:89,1
DA:90,1
DA:91,1
DA:92,1
DA:93,1
DA:94,1
DA:95,1
DA:96,1
DA:97,1
DA:98,1
DA:99,1
DA:100,1
DA:101,1
DA:102,1
DA:103,1
DA:104,1
DA:105,1
DA:106,1
DA:107,1
DA:108,1
DA:109,1
DA:110,1
DA:111,1
DA:112,1
DA:113,1
DA:114,1
DA:115,1
DA:116,1
DA:117,1
DA:118,1
DA:119,1
DA:120,1
DA:121,1
DA:122,1
DA:123,1
DA:124,1
DA:125,1
DA:126,1
DA:127,1
DA:128,1
DA:129,1
DA:130,1
DA:131,1
DA:132,1
DA:133,1
DA:134,1
DA:135,1
DA:136,1
DA:137,1
DA:138,1
DA:139,1
DA:140,1
DA:141,1
DA:142,1
DA:143,1
DA:144,1
DA:145,1
DA:146,1
DA:147,1
DA:148,1
DA:149,1
DA:150,1
DA:151,1
DA:152,1
DA:153,1
DA:154,1
DA:155,1
DA:156,1
DA:157,1
DA:158,1
DA:159,1
DA:160,1
DA:161,1
DA:162,1
DA:163,1
DA:164,1
DA:165,1
DA:166,1
DA:167,1
DA:168,1
DA:169,1
DA:170,1
DA:171,1
DA:172,1
DA:173,1
DA:174,1
DA:175,1
DA:176,1
DA:177,1
DA:178,1
DA:179,1
DA:180,1
DA:181,1
DA:182,1
DA:183,1
DA:184,1
DA:185,1
DA:186,1
DA:187,1
DA:188,1
DA:189,1
DA:190,1
DA:191,1
DA:192,1
DA:193,1
DA:194,1
DA:195,1
DA:196,1
DA:197,1
DA:198,1
DA:199,1
DA:200,1
DA:201,1
DA:202,1
DA:203,1
DA:204,1
DA:205,1
DA:206,1
DA:207,1
DA:208,1
DA:209,1
DA:210,1
DA:211,1
DA:212,1
DA:213,1
DA:214,1
DA:215,1
DA:216,1
DA:217,1
DA:218,1
DA:219,1
DA:220,1
DA:221,1
DA:222,1
DA:223,1
DA:224,1
DA:225,1
DA:226,1
DA:227,1
DA:228,1
DA:229,1
DA:230,1
DA:231,1
DA:232,1
DA:233,1
DA:234,1
DA:235,1
DA:236,1
DA:237,1
DA:238,1
DA:239,1
DA:240,1
DA:241,1
DA:242,1
DA:243,1
DA:244,1
DA:245,1
DA:246,1
DA:247,1
DA:248,1
DA:249,1
DA:250,1
DA:251,1
DA:252,1
DA:253,1
DA:254,1
DA:255,1
DA:256,1
DA:257,1
DA:258,1
DA:259,1
DA:260,1
DA:261,1
DA:262,1
DA:263,1
DA:264,1
DA:265,1
DA:266,1
DA:267,1
DA:268,1
DA:269,1
DA:270,1
DA:271,1
DA:272,1
DA:273,1
DA:274,1
DA:275,1
DA:276,1
DA:277,1
DA:278,1
DA:279,1
DA:280,1
DA:281,1
DA:282,1
DA:283,1
DA:284,1
DA:285,1
DA:286,1
DA:287,1
DA:288,1
DA:289,1
DA:290,1
DA:291,1
DA:292,1
DA:293,1
DA:294,1
DA:295,1
DA:296,1
DA:297,1
DA:298,1
DA:299,1
DA:300,1
DA:301,1
DA:302,1
DA:303,1
DA:304,1
DA:305,1
DA:306,1
DA:307,1
DA:308,1
DA:309,1
DA:310,1
DA:311,1
DA:312,1
DA:313,1
DA:314,1
DA:315,1
DA:316,1
DA:317,1
DA:318,1
DA:319,1
DA:320,1
DA:321,1
DA:322,1
DA:323,1
DA:324,1
DA:325,1
DA:326,1
DA:327,1
DA:328,1
DA:329,1
DA:330,1
DA:331,1
DA:332,1
DA:333,1
DA:334,1
DA:335,1
DA:336,1
DA:337,1
DA:338,1
DA:339,1
DA:340,1
DA:341,1
DA:342,1
DA:343,1
DA:346,0
DA:347,0
DA:348,0
DA:349,0
DA:350,0
DA:351,0
DA:352,0
DA:353,0
DA:354,0
DA:355,0
DA:356,0
DA:357,0
DA:360,0
DA:361,0
DA:362,0
DA:363,0
DA:364,0
DA:365,0
DA:366,0
DA:367,0
DA:368,0
DA:369,0
DA:370,0
DA:371,0
DA:374,0
DA:375,0
DA:376,0
DA:377,0
DA:378,0
DA:379,0
DA:380,0
DA:381,0
DA:382,0
DA:383,0
DA:384,0
DA:385,0
DA:388,0
DA:389,0
DA:390,0
DA:391,0
DA:392,0
DA:393,0
DA:394,0
DA:395,0
DA:396,0
DA:397,0
DA:398,0
DA:399,0
BRF:0
BRH:0
LF:360
LH:306
end_of_record
SF:E:\Work\Programming\Rust\wonderswan\src\cpu\v30mz.rs
FN:88,_RNvXNtNtCs7xho1sTY3gk_10wonderswan3cpu5v30mzNtB2_5V30MZNtNtB6_3soc6MemBus8read_mem
FN:100,_RNvXNtNtCs7xho1sTY3gk_10wonderswan3cpu5v30mzNtB2_5V30MZNtNtB6_3soc6MemBus9write_mem
FN:107,_RNvXs_NtNtCs7xho1sTY3gk_10wonderswan3cpu5v30mzNtB4_5V30MZNtNtB8_3soc5IOBus7read_io
FN:119,_RNvXs_NtNtCs7xho1sTY3gk_10wonderswan3cpu5v30mzNtB4_5V30MZNtNtB8_3soc5IOBus8write_io
FN:125,_RNvMs0_NtNtCs7xho1sTY3gk_10wonderswan3cpu5v30mzNtB5_5V30MZ3new
FN:142,_RNvMs0_NtNtCs7xho1sTY3gk_10wonderswan3cpu5v30mzNtB5_5V30MZ4tick
FN:147,_RNvMs0_NtNtCs7xho1sTY3gk_10wonderswan3cpu5v30mzNtB5_5V30MZ7execute
FN:260,_RNvMs0_NtNtCs7xho1sTY3gk_10wonderswan3cpu5v30mzNtB5_5V30MZ14get_pc_address
FN:264,_RNvMs0_NtNtCs7xho1sTY3gk_10wonderswan3cpu5v30mzNtB5_5V30MZ9finish_op
FN:272,_RNvMs0_NtNtCs7xho1sTY3gk_10wonderswan3cpu5v30mzNtB5_5V30MZ15raise_exception
FNDA:98393,_RNvXNtNtCs7xho1sTY3gk_10wonderswan3cpu5v30mzNtB2_5V30MZNtNtB6_3soc6MemBus8read_mem
FNDA:40,_RNvXNtNtCs7xho1sTY3gk_10wonderswan3cpu5v30mzNtB2_5V30MZNtNtB6_3soc6MemBus9write_mem
FNDA:14,_RNvXs_NtNtCs7xho1sTY3gk_10wonderswan3cpu5v30mzNtB4_5V30MZNtNtB8_3soc5IOBus7read_io
FNDA:0,_RNvXs_NtNtCs7xho1sTY3gk_10wonderswan3cpu5v30mzNtB4_5V30MZNtNtB8_3soc5IOBus8write_io
FNDA:41,_RNvMs0_NtNtCs7xho1sTY3gk_10wonderswan3cpu5v30mzNtB5_5V30MZ3new
FNDA:75,_RNvMs0_NtNtCs7xho1sTY3gk_10wonderswan3cpu5v30mzNtB5_5V30MZ4tick
FNDA:65727,_RNvMs0_NtNtCs7xho1sTY3gk_10wonderswan3cpu5v30mzNtB5_5V30MZ7execute
FNDA:77,_RNvMs0_NtNtCs7xho1sTY3gk_10wonderswan3cpu5v30mzNtB5_5V30MZ14get_pc_address
FNDA:79,_RNvMs0_NtNtCs7xho1sTY3gk_10wonderswan3cpu5v30mzNtB5_5V30MZ9finish_op
FNDA:0,_RNvMs0_NtNtCs7xho1sTY3gk_10wonderswan3cpu5v30mzNtB5_5V30MZ15raise_exception
FNF:10
FNH:8
DA:88,98393
DA:89,98393
DA:91,65567
DA:92,65567
DA:94,32826
DA:95,32826
DA:98,98393
DA:100,40
DA:101,40
DA:102,40
DA:103,40
DA:107,14
DA:108,14
DA:110,6
DA:111,6
DA:113,8
DA:114,8
DA:117,14
DA:119,0
DA:120,0
DA:121,0
DA:125,41
DA:126,41
DA:127,41
DA:128,41
DA:129,41
DA:130,41
DA:131,41
DA:132,41
DA:133,41
DA:134,41
DA:135,41
DA:136,41
DA:137,41
DA:138,41
DA:139,41
DA:140,41
DA:142,75
DA:143,75
DA:144,75
DA:145,75
DA:147,65727
DA:148,65727
DA:149,65727
DA:150,65727
DA:151,65652
DA:153,65652
DA:154,65652
DA:155,65652
DA:156,65652
DA:158,65652
DA:161,65597
DA:162,0
DA:164,65589
DA:165,0
DA:168,62
DA:171,50
DA:174,0
DA:177,50
DA:180,0
DA:183,0
DA:186,50
DA:189,0
DA:192,50
DA:193,0
DA:194,0
DA:195,0
DA:196,0
DA:197,0
DA:198,0
DA:199,0
DA:200,0
DA:201,0
DA:206,30
DA:210,1
DA:211,1
DA:212,1
DA:213,1
DA:214,1
DA:217,1
DA:218,1
DA:220,56
DA:223,6
DA:226,2
DA:229,2
DA:232,2
DA:235,0
DA:238,10
DA:241,0
DA:245,0
DA:246,0
DA:247,0
DA:248,0
DA:249,0
DA:253,0
DA:254,65573
DA:256,79
DA:257,79
DA:258,65727
DA:260,77
DA:261,77
DA:262,77
DA:264,79
DA:265,79
DA:266,79
DA:267,79
DA:268,79
DA:269,79
DA:270,79
DA:272,0
DA:273,0
DA:274,0
DA:275,0
DA:276,0
DA:277,0
DA:278,0
DA:279,0
DA:281,0
DA:282,0
DA:283,0
BRF:0
BRH:0
LF:120
LH:83
end_of_record
SF:E:\Work\Programming\Rust\wonderswan\src\cpu\v30mz\alu_ops.rs
FN:6,_RNvMNtNtNtCs7xho1sTY3gk_10wonderswan3cpu5v30mz7alu_opsNtB4_5V30MZ3add
FN:33,_RNvMNtNtNtCs7xho1sTY3gk_10wonderswan3cpu5v30mz7alu_opsNtB4_5V30MZ4addc
FN:65,_RNvMNtNtNtCs7xho1sTY3gk_10wonderswan3cpu5v30mz7alu_opsNtB4_5V30MZ5adj4a
FN:84,_RNvMNtNtNtCs7xho1sTY3gk_10wonderswan3cpu5v30mz7alu_opsNtB4_5V30MZ5adj4s
FN:103,_RNvMNtNtNtCs7xho1sTY3gk_10wonderswan3cpu5v30mz7alu_opsNtB4_5V30MZ5adjba
FN:125,_RNvMNtNtNtCs7xho1sTY3gk_10wonderswan3cpu5v30mz7alu_opsNtB4_5V30MZ5adjbs
FN:147,_RNvMNtNtNtCs7xho1sTY3gk_10wonderswan3cpu5v30mz7alu_opsNtB4_5V30MZ3cmp
FN:202,_RNvMNtNtNtCs7xho1sTY3gk_10wonderswan3cpu5v30mz7alu_opsNtB4_5V30MZ3sub
FN:227,_RNvMNtNtNtCs7xho1sTY3gk_10wonderswan3cpu5v30mz7alu_opsNtB4_5V30MZ4subc
FN:171,_RNvMNtNtNtCs7xho1sTY3gk_10wonderswan3cpu5v30mz7alu_opsNtB4_5V30MZ5cvtbd
FN:187,_RNvMNtNtNtCs7xho1sTY3gk_10wonderswan3cpu5v30mz7alu_opsNtB4_5V30MZ5cvtdb
FN:265,_RNvNtNtNtNtCs7xho1sTY3gk_10wonderswan3cpu5v30mz7alu_ops4tests_34test_0x00_add_register_to_memory_8
FN:280,_RNvNtNtNtNtCs7xho1sTY3gk_10wonderswan3cpu5v30mz7alu_ops4tests_35test_0x01_add_register_to_memory_16
FN:298,_RNvNtNtNtNtCs7xho1sTY3gk_10wonderswan3cpu5v30mz7alu_ops4tests_34test_0x02_add_memory_to_register_8
FN:314,_RNvNtNtNtNtCs7xho1sTY3gk_10wonderswan3cpu5v30mz7alu_ops4tests_35test_0x03_add_memory_to_register_16
FN:331,_RNvNtNtNtNtCs7xho1sTY3gk_10wonderswan3cpu5v30mz7alu_ops4tests_40test_0x04_add_immediate_to_accumulator_8
FN:348,_RNvNtNtNtNtCs7xho1sTY3gk_10wonderswan3cpu5v30mz7alu_ops4tests_41test_0x05_add_immediate_to_accumulator_16
FN:365,_RNvNtNtNtNtCs7xho1sTY3gk_10wonderswan3cpu5v30mz7alu_ops4tests_35test_0x10_addc_register_to_memory_8
FN:381,_RNvNtNtNtNtCs7xho1sTY3gk_10wonderswan3cpu5v30mz7alu_ops4tests_36test_0x11_addc_register_to_memory_16
FN:400,_RNvNtNtNtNtCs7xho1sTY3gk_10wonderswan3cpu5v30mz7alu_ops4tests_35test_0x12_addc_memory_to_register_8
FN:417,_RNvNtNtNtNtCs7xho1sTY3gk_10wonderswan3cpu5v30mz7alu_ops4tests_36test_0x13_addc_memory_to_register_16
FN:435,_RNvNtNtNtNtCs7xho1sTY3gk_10wonderswan3cpu5v30mz7alu_ops4tests_41test_0x14_addc_immediate_to_accumulator_8
FN:452,_RNvNtNtNtNtCs7xho1sTY3gk_10wonderswan3cpu5v30mz7alu_ops4tests_42test_0x15_addc_immediate_to_accumulator_16
FNDA:12,_RNvMNtNtNtCs7xho1sTY3gk_10wonderswan3cpu5v30mz7alu_opsNtB4_5V30MZ3add
FNDA:12,_RNvMNtNtNtCs7xho1sTY3gk_10wonderswan3cpu5v30mz7alu_opsNtB4_5V30MZ4addc
FNDA:0,_RNvMNtNtNtCs7xho1sTY3gk_10wonderswan3cpu5v30mz7alu_opsNtB4_5V30MZ5adj4a
FNDA:0,_RNvMNtNtNtCs7xho1sTY3gk_10wonderswan3cpu5v30mz7alu_opsNtB4_5V30MZ5adj4s
FNDA:0,_RNvMNtNtNtCs7xho1sTY3gk_10wonderswan3cpu5v30mz7alu_opsNtB4_5V30MZ5adjba
FNDA:0,_RNvMNtNtNtCs7xho1sTY3gk_10wonderswan3cpu5v30mz7alu_opsNtB4_5V30MZ5adjbs
FNDA:0,_RNvMNtNtNtCs7xho1sTY3gk_10wonderswan3cpu5v30mz7alu_opsNtB4_5V30MZ3cmp
FNDA:0,_RNvMNtNtNtCs7xho1sTY3gk_10wonderswan3cpu5v30mz7alu_opsNtB4_5V30MZ3sub
FNDA:0,_RNvMNtNtNtCs7xho1sTY3gk_10wonderswan3cpu5v30mz7alu_opsNtB4_5V30MZ4subc
FNDA:0,_RNvMNtNtNtCs7xho1sTY3gk_10wonderswan3cpu5v30mz7alu_opsNtB4_5V30MZ5cvtbd
FNDA:0,_RNvMNtNtNtCs7xho1sTY3gk_10wonderswan3cpu5v30mz7alu_opsNtB4_5V30MZ5cvtdb
FNDA:1,_RNvNtNtNtNtCs7xho1sTY3gk_10wonderswan3cpu5v30mz7alu_ops4tests_34test_0x00_add_register_to_memory_8
FNDA:1,_RNvNtNtNtNtCs7xho1sTY3gk_10wonderswan3cpu5v30mz7alu_ops4tests_35test_0x01_add_register_to_memory_16
FNDA:1,_RNvNtNtNtNtCs7xho1sTY3gk_10wonderswan3cpu5v30mz7alu_ops4tests_34test_0x02_add_memory_to_register_8
FNDA:1,_RNvNtNtNtNtCs7xho1sTY3gk_10wonderswan3cpu5v30mz7alu_ops4tests_35test_0x03_add_memory_to_register_16
FNDA:1,_RNvNtNtNtNtCs7xho1sTY3gk_10wonderswan3cpu5v30mz7alu_ops4tests_40test_0x04_add_immediate_to_accumulator_8
FNDA:1,_RNvNtNtNtNtCs7xho1sTY3gk_10wonderswan3cpu5v30mz7alu_ops4tests_41test_0x05_add_immediate_to_accumulator_16
FNDA:1,_RNvNtNtNtNtCs7xho1sTY3gk_10wonderswan3cpu5v30mz7alu_ops4tests_35test_0x10_addc_register_to_memory_8
FNDA:1,_RNvNtNtNtNtCs7xho1sTY3gk_10wonderswan3cpu5v30mz7alu_ops4tests_36test_0x11_addc_register_to_memory_16
FNDA:1,_RNvNtNtNtNtCs7xho1sTY3gk_10wonderswan3cpu5v30mz7alu_ops4tests_35test_0x12_addc_memory_to_register_8
FNDA:1,_RNvNtNtNtNtCs7xho1sTY3gk_10wonderswan3cpu5v30mz7alu_ops4tests_36test_0x13_addc_memory_to_register_16
FNDA:1,_RNvNtNtNtNtCs7xho1sTY3gk_10wonderswan3cpu5v30mz7alu_ops4tests_41test_0x14_addc_immediate_to_accumulator_8
FNDA:1,_RNvNtNtNtNtCs7xho1sTY3gk_10wonderswan3cpu5v30mz7alu_ops4tests_42test_0x15_addc_immediate_to_accumulator_16
FNF:23
FNH:14
DA:6,12
DA:7,12
DA:8,12
DA:10,5
DA:11,4
DA:13,3
DA:14,3
DA:15,3
DA:16,3
DA:17,3
DA:20,7
DA:21,5
DA:23,3
DA:24,3
DA:25,3
DA:26,3
DA:27,3
DA:29,0
DA:31,12
DA:33,12
DA:34,12
DA:35,12
DA:36,12
DA:38,5
DA:39,4
DA:41,3
DA:42,3
DA:43,3
DA:44,3
DA:45,3
DA:46,3
DA:47,3
DA:50,7
DA:51,5
DA:53,3
DA:54,3
DA:55,3
DA:56,3
DA:57,3
DA:58,3
DA:59,3
DA:61,0
DA:63,12
DA:65,0
DA:66,0
DA:67,0
DA:68,0
DA:69,0
DA:70,0
DA:71,0
DA:72,0
DA:73,0
DA:74,0
DA:75,0
DA:76,0
DA:78,0
DA:79,0
DA:80,0
DA:81,0
DA:82,0
DA:84,0
DA:85,0
DA:86,0
DA:87,0
DA:88,0
DA:89,0
DA:90,0
DA:91,0
DA:92,0
DA:93,0
DA:94,0
DA:95,0
DA:97,0
DA:98,0
DA:99,0
DA:100,0
DA:101,0
DA:103,0
DA:104,0
DA:105,0
DA:106,0
DA:107,0
DA:108,0
DA:109,0
DA:110,0
DA:111,0
DA:112,0
DA:113,0
DA:114,0
DA:115,0
DA:116,0
DA:117,0
DA:118,0
DA:119,0
DA:120,0
DA:121,0
DA:122,0
DA:123,0
DA:125,0
DA:126,0
DA:127,0
DA:128,0
DA:129,0
DA:130,0
DA:131,0
DA:132,0
DA:133,0
DA:134,0
DA:135,0
DA:136,0
DA:137,0
DA:138,0
DA:139,0
DA:140,0
DA:141,0
DA:142,0
DA:143,0
DA:144,0
DA:145,0
DA:147,0
DA:148,0
DA:150,0
DA:151,0
DA:153,0
DA:154,0
DA:155,0
DA:158,0
DA:159,0
DA:161,0
DA:162,0
DA:163,0
DA:165,0
DA:168,0
DA:169,0
DA:171,0
DA:172,0
DA:173,0
DA:174,0
DA:175,0
DA:176,0
DA:177,0
DA:178,0
DA:179,0
DA:180,0
DA:181,0
DA:182,0
DA:183,0
DA:184,0
DA:185,0
DA:187,0
DA:188,0
DA:189,0
DA:190,0
DA:191,0
DA:192,0
DA:193,0
DA:194,0
DA:195,0
DA:196,0
DA:197,0
DA:198,0
DA:199,0
DA:200,0
DA:202,0
DA:203,0
DA:204,0
DA:206,0
DA:207,0
DA:209,0
DA:210,0
DA:211,0
DA:212,0
DA:215,0
DA:216,0
DA:218,0
DA:219,0
DA:220,0
DA:221,0
DA:223,0
DA:225,0
DA:227,0
DA:228,0
DA:229,0
DA:231,0
DA:232,0
DA:234,0
DA:235,0
DA:236,0
DA:237,0
DA:238,0
DA:239,0
DA:242,0
DA:243,0
DA:245,0
DA:246,0
DA:247,0
DA:248,0
DA:249,0
DA:250,0
DA:252,0
DA:254,0
DA:265,1
DA:266,1
DA:267,1
DA:268,1
DA:269,1
DA:270,1
DA:271,1
DA:272,1
DA:273,1
DA:274,1
DA:275,1
DA:276,1
DA:277,1
DA:280,1
DA:281,1
DA:282,1
DA:283,1
DA:284,1
DA:285,1
DA:286,1
DA:287,1
DA:288,1
DA:289,1
DA:290,1
DA:291,1
DA:292,1
DA:293,1
DA:294,1
DA:295,1
DA:298,1
DA:299,1
DA:300,1
DA:301,1
DA:302,1
DA:303,1
DA:304,1
DA:305,1
DA:306,1
DA:307,1
DA:308,1
DA:309,1
DA:310,1
DA:311,1
DA:314,1
DA:315,1
DA:316,1
DA:317,1
DA:318,1
DA:319,1
DA:320,1
DA:321,1
DA:322,1
DA:323,1
DA:324,1
DA:325,1
DA:326,1
DA:327,1
DA:328,1
DA:331,1
DA:332,1
DA:333,1
DA:334,1
DA:335,1
DA:336,1
DA:337,1
DA:338,1
DA:339,1
DA:340,1
DA:341,1
DA:342,1
DA:343,1
DA:344,1
DA:345,1
DA:348,1
DA:349,1
DA:350,1
DA:351,1
DA:352,1
DA:353,1
DA:354,1
DA:355,1
DA:356,1
DA:357,1
DA:358,1
DA:359,1
DA:360,1
DA:361,1
DA:362,1
DA:365,1
DA:366,1
DA:367,1
DA:368,1
DA:369,1
DA:370,1
DA:371,1
DA:372,1
DA:373,1
DA:374,1
DA:375,1
DA:376,1
DA:377,1
DA:378,1
DA:381,1
DA:382,1
DA:383,1
DA:384,1
DA:385,1
DA:386,1
DA:387,1
DA:388,1
DA:389,1
DA:390,1
DA:391,1
DA:392,1
DA:393,1
DA:394,1
DA:395,1
DA:396,1
DA:397,1
DA:400,1
DA:401,1
DA:402,1
DA:403,1
DA:404,1
DA:405,1
DA:406,1
DA:407,1
DA:408,1
DA:409,1
DA:410,1
DA:411,1
DA:412,1
DA:413,1
DA:414,1
DA:417,1
DA:418,1
DA:419,1
DA:420,1
DA:421,1
DA:422,1
DA:423,1
DA:424,1
DA:425,1
DA:426,1
DA:427,1
DA:428,1
DA:429,1
DA:430,1
DA:431,1
DA:432,1
DA:435,1
DA:436,1
DA:437,1
DA:438,1
DA:439,1
DA:440,1
DA:441,1
DA:442,1
DA:443,1
DA:444,1
DA:445,1
DA:446,1
DA:447,1
DA:448,1
DA:449,1
DA:452,1
DA:453,1
DA:454,1
DA:455,1
DA:456,1
DA:457,1
DA:458,1
DA:459,1
DA:460,1
DA:461,1
DA:462,1
DA:463,1
DA:464,1
DA:465,1
DA:466,1
BRF:0
BRH:0
LF:381
LH:221
end_of_record
SF:E:\Work\Programming\Rust\wonderswan\src\cpu\v30mz\mem_ops.rs
FN:277,_RNvNtNtNtNtCs7xho1sTY3gk_10wonderswan3cpu5v30mz7mem_ops4tests_18test_0x06_push_seg
FN:294,_RNvNtNtNtNtCs7xho1sTY3gk_10wonderswan3cpu5v30mz7mem_ops4tests_17test_push_pop_reg
FN:361,_RNvNtNtNtNtCs7xho1sTY3gk_10wonderswan3cpu5v30mz7mem_ops4tests_26test_0x88_mov_reg_to_mem_8
FN:385,_RNvNtNtNtNtCs7xho1sTY3gk_10wonderswan3cpu5v30mz7mem_ops4tests_27test_0x89_mov_reg_to_mem_16
FN:411,_RNvNtNtNtNtCs7xho1sTY3gk_10wonderswan3cpu5v30mz7mem_ops4tests_26test_0x8a_mov_mem_to_reg_8
FN:437,_RNvNtNtNtNtCs7xho1sTY3gk_10wonderswan3cpu5v30mz7mem_ops4tests_27test_0x8b_mov_mem_to_reg_16
FN:464,_RNvNtNtNtNtCs7xho1sTY3gk_10wonderswan3cpu5v30mz7mem_ops4tests_24test_0x8c_mov_seg_to_mem
FN:490,_RNvNtNtNtNtCs7xho1sTY3gk_10wonderswan3cpu5v30mz7mem_ops4tests_14test_0x8d_ldea
FN:528,_RNvNtNtNtNtCs7xho1sTY3gk_10wonderswan3cpu5v30mz7mem_ops4tests_24test_0x8e_mov_mem_to_seg
FN:555,_RNvNtNtNtNtCs7xho1sTY3gk_10wonderswan3cpu5v30mz7mem_ops4tests_15test_0x98_cvtbw
FN:570,_RNvNtNtNtNtCs7xho1sTY3gk_10wonderswan3cpu5v30mz7mem_ops4tests_15test_0x99_cvtwl
FN:585,_RNvNtNtNtNtCs7xho1sTY3gk_10wonderswan3cpu5v30mz7mem_ops4tests_23test_0x9e_mov_ah_to_psw
FN:598,_RNvNtNtNtNtCs7xho1sTY3gk_10wonderswan3cpu5v30mz7mem_ops4tests_23test_0x9f_mov_psw_to_ah
FN:611,_RNvNtNtNtNtCs7xho1sTY3gk_10wonderswan3cpu5v30mz7mem_ops4tests_31test_0xa0_mov_dir_mem_to_acc_16
FN:627,_RNvNtNtNtNtCs7xho1sTY3gk_10wonderswan3cpu5v30mz7mem_ops4tests_31test_0xa1_mov_dir_mem_to_acc_16
FN:644,_RNvNtNtNtNtCs7xho1sTY3gk_10wonderswan3cpu5v30mz7mem_ops4tests_29test_0xa2_mov_al_to_dir_mem_8
FN:659,_RNvNtNtNtNtCs7xho1sTY3gk_10wonderswan3cpu5v30mz7mem_ops4tests_27test_0xa3_mov_aw_to_dir_mem
FN:675,_RNvNtNtNtNtCs7xho1sTY3gk_10wonderswan3cpu5v30mz7mem_ops4tests_26test_0xb0_mov_imm_to_reg_8
FN:687,_RNvNtNtNtNtCs7xho1sTY3gk_10wonderswan3cpu5v30mz7mem_ops4tests_27test_0xb8_mov_imm_to_reg_16
FN:699,_RNvNtNtNtNtCs7xho1sTY3gk_10wonderswan3cpu5v30mz7mem_ops4tests_28test_0xc4_mov_mem_to_ds1_reg
FN:716,_RNvNtNtNtNtCs7xho1sTY3gk_10wonderswan3cpu5v30mz7mem_ops4tests_28test_0xc5_mov_mem_to_ds0_reg
FN:733,_RNvNtNtNtNtCs7xho1sTY3gk_10wonderswan3cpu5v30mz7mem_ops4tests_26test_0xc6_mov_imm_to_mem_8
FN:745,_RNvNtNtNtNtCs7xho1sTY3gk_10wonderswan3cpu5v30mz7mem_ops4tests_27test_0xc7_mov_imm_to_mem_16
FN:758,_RNvNtNtNtNtCs7xho1sTY3gk_10wonderswan3cpu5v30mz7mem_ops4tests_14test_0xd6_salc
FN:772,_RNvNtNtNtNtCs7xho1sTY3gk_10wonderswan3cpu5v30mz7mem_ops4tests_12test_0xe4_in
FN:781,_RNvNtNtNtNtCs7xho1sTY3gk_10wonderswan3cpu5v30mz7mem_ops4tests_12test_0xe5_in
FN:790,_RNvNtNtNtNtCs7xho1sTY3gk_10wonderswan3cpu5v30mz7mem_ops4tests_12test_0xec_in
FN:800,_RNvNtNtNtNtCs7xho1sTY3gk_10wonderswan3cpu5v30mz7mem_ops4tests_12test_0xed_in
FN:4,_RNvMNtNtNtCs7xho1sTY3gk_10wonderswan3cpu5v30mz7mem_opsNtB4_5V30MZ7push_op
FN:22,_RNvMNtNtNtCs7xho1sTY3gk_10wonderswan3cpu5v30mz7mem_opsNtB4_5V30MZ6push_r
FN:34,_RNvMNtNtNtCs7xho1sTY3gk_10wonderswan3cpu5v30mz7mem_opsNtB4_5V30MZ6pop_op
FN:61,_RNvMNtNtNtCs7xho1sTY3gk_10wonderswan3cpu5v30mz7mem_opsNtB4_5V30MZ5pop_r
FN:74,_RNvMNtNtNtCs7xho1sTY3gk_10wonderswan3cpu5v30mz7mem_opsNtB4_5V30MZ3mov
FN:131,_RNvMNtNtNtCs7xho1sTY3gk_10wonderswan3cpu5v30mz7mem_opsNtB4_5V30MZ4ldea
FN:150,_RNvMNtNtNtCs7xho1sTY3gk_10wonderswan3cpu5v30mz7mem_opsNtB4_5V30MZ5cvtbw
FN:164,_RNvMNtNtNtCs7xho1sTY3gk_10wonderswan3cpu5v30mz7mem_opsNtB4_5V30MZ5cvtwl
FN:174,_RNvMNtNtNtCs7xho1sTY3gk_10wonderswan3cpu5v30mz7mem_opsNtB4_5V30MZ4salc
FN:184,_RNvMNtNtNtCs7xho1sTY3gk_10wonderswan3cpu5v30mz7mem_opsNtB4_5V30MZ5trans
FN:194,_RNvMNtNtNtCs7xho1sTY3gk_10wonderswan3cpu5v30mz7mem_opsNtB4_5V30MZ5in_op
FN:220,_RNvMNtNtNtCs7xho1sTY3gk_10wonderswan3cpu5v30mz7mem_opsNtB4_5V30MZ6out_op
FN:234,_RNvMNtNtNtCs7xho1sTY3gk_10wonderswan3cpu5v30mz7mem_opsNtB4_5V30MZ3xch
FNDA:1,_RNvNtNtNtNtCs7xho1sTY3gk_10wonderswan3cpu5v30mz7mem_ops4tests_18test_0x06_push_seg
FNDA:1,_RNvNtNtNtNtCs7xho1sTY3gk_10wonderswan3cpu5v30mz7mem_ops4tests_17test_push_pop_reg
FNDA:1,_RNvNtNtNtNtCs7xho1sTY3gk_10wonderswan3cpu5v30mz7mem_ops4tests_26test_0x88_mov_reg_to_mem_8
FNDA:1,_RNvNtNtNtNtCs7xho1sTY3gk_10wonderswan3cpu5v30mz7mem_ops4tests_27test_0x89_mov_reg_to_mem_16
FNDA:1,_RNvNtNtNtNtCs7xho1sTY3gk_10wonderswan3cpu5v30mz7mem_ops4tests_26test_0x8a_mov_mem_to_reg_8
FNDA:1,_RNvNtNtNtNtCs7xho1sTY3gk_10wonderswan3cpu5v30mz7mem_ops4tests_27test_0x8b_mov_mem_to_reg_16
FNDA:1,_RNvNtNtNtNtCs7xho1sTY3gk_10wonderswan3cpu5v30mz7mem_ops4tests_24test_0x8c_mov_seg_to_mem
FNDA:1,_RNvNtNtNtNtCs7xho1sTY3gk_10wonderswan3cpu5v30mz7mem_ops4tests_14test_0x8d_ldea
FNDA:1,_RNvNtNtNtNtCs7xho1sTY3gk_10wonderswan3cpu5v30mz7mem_ops4tests_24test_0x8e_mov_mem_to_seg
FNDA:1,_RNvNtNtNtNtCs7xho1sTY3gk_10wonderswan3cpu5v30mz7mem_ops4tests_15test_0x98_cvtbw
FNDA:1,_RNvNtNtNtNtCs7xho1sTY3gk_10wonderswan3cpu5v30mz7mem_ops4tests_15test_0x99_cvtwl
FNDA:1,_RNvNtNtNtNtCs7xho1sTY3gk_10wonderswan3cpu5v30mz7mem_ops4tests_23test_0x9e_mov_ah_to_psw
FNDA:1,_RNvNtNtNtNtCs7xho1sTY3gk_10wonderswan3cpu5v30mz7mem_ops4tests_23test_0x9f_mov_psw_to_ah
FNDA:1,_RNvNtNtNtNtCs7xho1sTY3gk_10wonderswan3cpu5v30mz7mem_ops4tests_31test_0xa0_mov_dir_mem_to_acc_16
FNDA:1,_RNvNtNtNtNtCs7xho1sTY3gk_10wonderswan3cpu5v30mz7mem_ops4tests_31test_0xa1_mov_dir_mem_to_acc_16
FNDA:1,_RNvNtNtNtNtCs7xho1sTY3gk_10wonderswan3cpu5v30mz7mem_ops4tests_29test_0xa2_mov_al_to_dir_mem_8
FNDA:1,_RNvNtNtNtNtCs7xho1sTY3gk_10wonderswan3cpu5v30mz7mem_ops4tests_27test_0xa3_mov_aw_to_dir_mem
FNDA:1,_RNvNtNtNtNtCs7xho1sTY3gk_10wonderswan3cpu5v30mz7mem_ops4tests_26test_0xb0_mov_imm_to_reg_8
FNDA:1,_RNvNtNtNtNtCs7xho1sTY3gk_10wonderswan3cpu5v30mz7mem_ops4tests_27test_0xb8_mov_imm_to_reg_16
FNDA:1,_RNvNtNtNtNtCs7xho1sTY3gk_10wonderswan3cpu5v30mz7mem_ops4tests_28test_0xc4_mov_mem_to_ds1_reg
FNDA:1,_RNvNtNtNtNtCs7xho1sTY3gk_10wonderswan3cpu5v30mz7mem_ops4tests_28test_0xc5_mov_mem_to_ds0_reg
FNDA:1,_RNvNtNtNtNtCs7xho1sTY3gk_10wonderswan3cpu5v30mz7mem_ops4tests_26test_0xc6_mov_imm_to_mem_8
FNDA:1,_RNvNtNtNtNtCs7xho1sTY3gk_10wonderswan3cpu5v30mz7mem_ops4tests_27test_0xc7_mov_imm_to_mem_16
FNDA:1,_RNvNtNtNtNtCs7xho1sTY3gk_10wonderswan3cpu5v30mz7mem_ops4tests_14test_0xd6_salc
FNDA:1,_RNvNtNtNtNtCs7xho1sTY3gk_10wonderswan3cpu5v30mz7mem_ops4tests_12test_0xe4_in
FNDA:1,_RNvNtNtNtNtCs7xho1sTY3gk_10wonderswan3cpu5v30mz7mem_ops4tests_12test_0xe5_in
FNDA:1,_RNvNtNtNtNtCs7xho1sTY3gk_10wonderswan3cpu5v30mz7mem_ops4tests_12test_0xec_in
FNDA:1,_RNvNtNtNtNtCs7xho1sTY3gk_10wonderswan3cpu5v30mz7mem_ops4tests_12test_0xed_in
FNDA:9,_RNvMNtNtNtCs7xho1sTY3gk_10wonderswan3cpu5v30mz7mem_opsNtB4_5V30MZ7push_op
FNDA:0,_RNvMNtNtNtCs7xho1sTY3gk_10wonderswan3cpu5v30mz7mem_opsNtB4_5V30MZ6push_r
FNDA:65539,_RNvMNtNtNtCs7xho1sTY3gk_10wonderswan3cpu5v30mz7mem_opsNtB4_5V30MZ6pop_op
FNDA:0,_RNvMNtNtNtCs7xho1sTY3gk_10wonderswan3cpu5v30mz7mem_opsNtB4_5V30MZ5pop_r
FNDA:56,_RNvMNtNtNtCs7xho1sTY3gk_10wonderswan3cpu5v30mz7mem_opsNtB4_5V30MZ3mov
FNDA:6,_RNvMNtNtNtCs7xho1sTY3gk_10wonderswan3cpu5v30mz7mem_opsNtB4_5V30MZ4ldea
FNDA:2,_RNvMNtNtNtCs7xho1sTY3gk_10wonderswan3cpu5v30mz7mem_opsNtB4_5V30MZ5cvtbw
FNDA:2,_RNvMNtNtNtCs7xho1sTY3gk_10wonderswan3cpu5v30mz7mem_opsNtB4_5V30MZ5cvtwl
FNDA:2,_RNvMNtNtNtCs7xho1sTY3gk_10wonderswan3cpu5v30mz7mem_opsNtB4_5V30MZ4salc
FNDA:0,_RNvMNtNtNtCs7xho1sTY3gk_10wonderswan3cpu5v30mz7mem_opsNtB4_5V30MZ5trans
FNDA:10,_RNvMNtNtNtCs7xho1sTY3gk_10wonderswan3cpu5v30mz7mem_opsNtB4_5V30MZ5in_op
FNDA:0,_RNvMNtNtNtCs7xho1sTY3gk_10wonderswan3cpu5v30mz7mem_opsNtB4_5V30MZ6out_op
FNDA:0,_RNvMNtNtNtCs7xho1sTY3gk_10wonderswan3cpu5v30mz7mem_opsNtB4_5V30MZ3xch
FNF:41
FNH:36
DA:4,9
DA:6,9
DA:8,1
DA:9,1
DA:12,8
DA:13,8
DA:15,0
DA:17,9
DA:18,9
DA:19,9
DA:20,9
DA:22,0
DA:23,0
DA:24,0
DA:25,0
DA:26,0
DA:27,0
DA:28,0
DA:29,0
DA:30,0
DA:31,0
DA:32,0
DA:34,65539
DA:36,65539
DA:37,3
DA:38,3
DA:39,0
DA:41,3
DA:42,3
DA:43,3
DA:45,0
DA:46,0
DA:47,0
DA:48,0
DA:49,0
DA:53,0
DA:55,0
DA:58,3
DA:59,65539
DA:61,0
DA:62,0
DA:63,0
DA:64,0
DA:65,0
DA:66,0
DA:67,0
DA:68,0
DA:69,0
DA:71,0
DA:72,0
DA:74,56
DA:75,56
DA:76,56
DA:77,56
DA:78,56
DA:79,56
DA:80,11
DA:81,45
DA:82,45
DA:83,45
DA:84,2
DA:85,2
DA:86,2
DA:88,2
DA:89,1
DA:90,1
DA:92,1
DA:93,1
DA:95,2
DA:96,43
DA:97,43
DA:98,43
DA:100,33
DA:102,11
DA:103,8
DA:106,22
DA:107,14
DA:109,0
DA:113,10
DA:114,10
DA:115,10
DA:117,2
DA:118,2
DA:119,2
DA:120,2
DA:121,1
DA:122,1
DA:123,0
DA:128,24
DA:129,56
DA:131,6
DA:132,6
DA:133,6
DA:134,6
DA:135,6
DA:136,6
DA:138,6
DA:139,6
DA:141,1
DA:142,5
DA:143,1
DA:144,0
DA:147,6
DA:148,6
DA:150,2
DA:151,2
DA:152,2
DA:153,2
DA:154,2
DA:155,2
DA:156,1
DA:157,1
DA:158,1
DA:159,1
DA:161,2
DA:162,2
DA:164,2
DA:165,2
DA:166,2
DA:167,2
DA:168,2
DA:169,2
DA:171,2
DA:172,2
DA:174,2
DA:175,2
DA:176,2
DA:177,2
DA:178,1
DA:179,1
DA:180,1
DA:181,1
DA:182,2
DA:184,0
DA:185,0
DA:186,0
DA:187,0
DA:188,0
DA:189,0
DA:191,0
DA:192,0
DA:194,10
DA:198,10
DA:202,10
DA:204,4
DA:206,2
DA:209,6
DA:211,2
DA:212,2
DA:214,0
DA:217,4
DA:218,10
DA:220,0
DA:224,0
DA:225,0
DA:226,0
DA:227,0
DA:228,0
DA:231,0
DA:232,0
DA:234,0
DA:235,0
DA:236,0
DA:237,0
DA:239,0
DA:240,0
DA:241,0
DA:242,0
DA:245,0
DA:247,0
DA:248,0
DA:249,0
DA:250,0
DA:253,0
DA:254,0
DA:255,0
DA:256,0
DA:257,0
DA:258,0
DA:262,0
DA:265,0
DA:266,0
DA:277,1
DA:278,1
DA:279,1
DA:280,1
DA:281,1
DA:282,1
DA:283,1
DA:284,1
DA:285,1
DA:286,1
DA:287,1
DA:288,1
DA:289,1
DA:290,1
DA:291,1
DA:294,1
DA:295,1
DA:296,1
DA:297,1
DA:298,1
DA:299,1
DA:300,1
DA:301,1
DA:302,1
DA:303,1
DA:304,1
DA:305,1
DA:306,1
DA:307,1
DA:308,1
DA:309,1
DA:310,1
DA:311,1
DA:313,9
DA:314,8
DA:315,8
DA:317,1
DA:318,1
DA:319,1
DA:320,1
DA:322,1
DA:323,1
DA:324,1
DA:326,1
DA:327,1
DA:328,1
DA:330,1
DA:331,1
DA:332,1
DA:334,1
DA:335,1
DA:336,1
DA:338,1
DA:339,1
DA:340,1
DA:342,1
DA:343,1
DA:344,1
DA:346,1
DA:347,1
DA:348,1
DA:350,1
DA:351,1
DA:353,1
DA:354,1
DA:356,1
DA:357,1
DA:358,1
DA:361,1
DA:362,1
DA:363,1
DA:364,1
DA:365,1
DA:366,1
DA:367,1
DA:368,1
DA:369,1
DA:370,1
DA:371,1
DA:372,1
DA:373,1
DA:375,1
DA:376,1
DA:377,1
DA:379,1
DA:380,1
DA:381,1
DA:382,1
DA:385,1
DA:386,1
DA:387,1
DA:388,1
DA:389,1
DA:390,1
DA:391,1
DA:392,1
DA:393,1
DA:394,1
DA:395,1
DA:396,1
DA:397,1
DA:399,1
DA:400,1
DA:401,1
DA:402,1
DA:404,1
DA:405,1
DA:406,1
DA:407,1
DA:408,1
DA:411,1
DA:412,1
DA:413,1
DA:414,1
DA:415,1
DA:416,1
DA:417,1
DA:418,1
DA:419,1
DA:420,1
DA:421,1
DA:422,1
DA:423,1
DA:424,1
DA:425,1
DA:427,1
DA:428,1
DA:429,1
DA:431,1
DA:432,1
DA:433,1
DA:434,1
DA:437,1
DA:438,1
DA:439,1
DA:440,1
DA:441,1
DA:442,1
DA:443,1
DA:444,1
DA:445,1
DA:446,1
DA:447,1
DA:448,1
DA:449,1
DA:450,1
DA:451,1
DA:452,1
DA:454,1
DA:455,1
DA:456,1
DA:458,1
DA:459,1
DA:460,1
DA:461,1
DA:464,1
DA:465,1
DA:466,1
DA:467,1
DA:468,1
DA:469,1
DA:470,1
DA:471,1
DA:472,1
DA:473,1
DA:474,1
DA:475,1
DA:476,1
DA:478,1
DA:479,1
DA:480,1
DA:481,1
DA:483,1
DA:484,1
DA:485,1
DA:486,1
DA:487,1
DA:490,1
DA:491,1
DA:492,1
DA:493,1
DA:494,1
DA:495,1
DA:496,1
DA:497,1
DA:498,1
DA:499,1
DA:500,1
DA:501,1
DA:502,1
DA:503,1
DA:504,1
DA:505,1
DA:506,1
DA:507,1
DA:509,1
DA:510,1
DA:511,1
DA:513,1
DA:514,1
DA:515,1
DA:517,1
DA:518,1
DA:520,1
DA:521,1
DA:523,1
DA:524,1
DA:525,1
DA:528,1
DA:529,1
DA:530,1
DA:531,1
DA:532,1
DA:533,1
DA:534,1
DA:535,1
DA:536,1
DA:537,1
DA:538,1
DA:539,1
DA:540,1
DA:541,1
DA:542,1
DA:543,1
DA:545,1
DA:546,1
DA:547,1
DA:549,1
DA:550,1
DA:551,1
DA:552,1
DA:555,1
DA:556,1
DA:557,1
DA:558,1
DA:559,1
DA:560,1
DA:561,1
DA:563,1
DA:564,1
DA:565,1
DA:566,1
DA:567,1
DA:570,1
DA:571,1
DA:572,1
DA:573,1
DA:574,1
DA:575,1
DA:576,1
DA:578,1
DA:579,1
DA:580,1
DA:581,1
DA:582,1
DA:585,1
DA:586,1
DA:587,1
DA:588,1
DA:589,1
DA:590,1
DA:591,1
DA:592,1
DA:593,1
DA:594,1
DA:595,1
DA:598,1
DA:599,1
DA:600,1
DA:601,1
DA:602,1
DA:603,1
DA:604,1
DA:605,1
DA:606,1
DA:607,1
DA:608,1
DA:611,1
DA:612,1
DA:613,1
DA:614,1
DA:615,1
DA:616,1
DA:617,1
DA:618,1
DA:619,1
DA:620,1
DA:621,1
DA:622,1
DA:623,1
DA:624,1
DA:627,1
DA:628,1
DA:629,1
DA:630,1
DA:631,1
DA:632,1
DA:633,1
DA:634,1
DA:635,1
DA:636,1
DA:637,1
DA:638,1
DA:639,1
DA:640,1
DA:641,1
DA:644,1
DA:645,1
DA:646,1
DA:647,1
DA:648,1
DA:649,1
DA:650,1
DA:651,1
DA:652,1
DA:653,1
DA:654,1
DA:655,1
DA:656,1
DA:659,1
DA:660,1
DA:661,1
DA:662,1
DA:663,1
DA:664,1
DA:665,1
DA:666,1
DA:667,1
DA:668,1
DA:669,1
DA:670,1
DA:671,1
DA:672,1
DA:675,1
DA:676,1
DA:677,1
DA:678,1
DA:679,1
DA:680,1
DA:681,1
DA:682,1
DA:683,1
DA:684,1
DA:687,1
DA:688,1
DA:689,1
DA:690,1
DA:691,1
DA:692,1
DA:693,1
DA:694,1
DA:695,1
DA:696,1
DA:699,1
DA:700,1
DA:701,1
DA:702,1
DA:703,1
DA:704,1
DA:705,1
DA:706,1
DA:707,1
DA:708,1
DA:709,1
DA:710,1
DA:711,1
DA:712,1
DA:713,1
DA:716,1
DA:717,1
DA:718,1
DA:719,1
DA:720,1
DA:721,1
DA:722,1
DA:723,1
DA:724,1
DA:725,1
DA:726,1
DA:727,1
DA:728,1
DA:729,1
DA:730,1
DA:733,1
DA:734,1
DA:735,1
DA:736,1
DA:737,1
DA:738,1
DA:739,1
DA:740,1
DA:741,1
DA:742,1
DA:745,1
DA:746,1
DA:747,1
DA:748,1
DA:749,1
DA:750,1
DA:751,1
DA:752,1
DA:753,1
DA:754,1
DA:755,1
DA:758,1
DA:759,1
DA:760,1
DA:761,1
DA:762,1
DA:763,1
DA:764,1
DA:766,1
DA:767,1
DA:768,1
DA:769,1
DA:772,1
DA:773,1
DA:774,1
DA:775,1
DA:776,1
DA:777,1
DA:778,1
DA:781,1
DA:782,1
DA:783,1
DA:784,1
DA:785,1
DA:786,1
DA:787,1
DA:790,1
DA:791,1
DA:792,1
DA:793,1
DA:794,1
DA:795,1
DA:796,1
DA:797,1
DA:800,1
DA:801,1
DA:802,1
DA:803,1
DA:804,1
DA:805,1
DA:806,1
DA:807,1
BRF:0
BRH:0
LF:627
LH:554
end_of_record
SF:E:\Work\Programming\Rust\wonderswan\src\cpu\v30mz\util.rs
FN:8,_RNvMNtNtNtCs7xho1sTY3gk_10wonderswan3cpu5v30mz4utilNtB4_5V30MZ17expect_extra_byte
FN:14,_RNvMNtNtNtCs7xho1sTY3gk_10wonderswan3cpu5v30mz4utilNtB4_5V30MZ17expect_extra_word
FN:20,_RNvMNtNtNtCs7xho1sTY3gk_10wonderswan3cpu5v30mz4utilNtB4_5V30MZ18update_flags_sub_8
FN:32,_RNvMNtNtNtCs7xho1sTY3gk_10wonderswan3cpu5v30mz4utilNtB4_5V30MZ19update_flags_sub_16
FN:44,_RNvMNtNtNtCs7xho1sTY3gk_10wonderswan3cpu5v30mz4utilNtB4_5V30MZ18update_flags_add_8
FN:55,_RNvMNtNtNtCs7xho1sTY3gk_10wonderswan3cpu5v30mz4utilNtB4_5V30MZ19update_flags_add_16
FN:66,_RNvMNtNtNtCs7xho1sTY3gk_10wonderswan3cpu5v30mz4utilNtB4_5V30MZ4push
FN:72,_RNvMNtNtNtCs7xho1sTY3gk_10wonderswan3cpu5v30mz4utilNtB4_5V30MZ3pop
FN:78,_RNvMNtNtNtCs7xho1sTY3gk_10wonderswan3cpu5v30mz4utilNtB4_5V30MZ23load_register_immediate
FN:109,_RNvMNtNtNtCs7xho1sTY3gk_10wonderswan3cpu5v30mz4utilNtB4_5V30MZ14resolve_src_16
FN:146,_RNvMNtNtNtCs7xho1sTY3gk_10wonderswan3cpu5v30mz4utilNtB4_5V30MZ13resolve_src_8
FN:174,_RNvMNtNtNtCs7xho1sTY3gk_10wonderswan3cpu5v30mz4utilNtB4_5V30MZ18resolve_mem_src_32
FN:186,_RNvMNtNtNtCs7xho1sTY3gk_10wonderswan3cpu5v30mz4utilNtB4_5V30MZ18resolve_mem_src_16
FN:198,_RNvMNtNtNtCs7xho1sTY3gk_10wonderswan3cpu5v30mz4utilNtB4_5V30MZ17resolve_mem_src_8
FN:210,_RNvMNtNtNtCs7xho1sTY3gk_10wonderswan3cpu5v30mz4utilNtB4_5V30MZ20write_src_to_dest_16
FN:231,_RNvMNtNtNtCs7xho1sTY3gk_10wonderswan3cpu5v30mz4utilNtB4_5V30MZ19write_src_to_dest_8
FN:251,_RNvMNtNtNtCs7xho1sTY3gk_10wonderswan3cpu5v30mz4utilNtB4_5V30MZ22get_direct_mem_address
FN:258,_RNvMNtNtNtCs7xho1sTY3gk_10wonderswan3cpu5v30mz4utilNtB4_5V30MZ20write_mem_operand_16
FN:277,_RNvMNtNtNtCs7xho1sTY3gk_10wonderswan3cpu5v30mz4utilNtB4_5V30MZ19write_mem_operand_8
FN:297,_RNvMNtNtNtCs7xho1sTY3gk_10wonderswan3cpu5v30mz4utilNtB4_5V30MZ20write_reg_operand_16
FN:306,_RNvMNtNtNtCs7xho1sTY3gk_10wonderswan3cpu5v30mz4utilNtB4_5V30MZ19write_reg_operand_8
FN:316,_RNvMNtNtNtCs7xho1sTY3gk_10wonderswan3cpu5v30mz4utilNtB4_5V30MZ20write_to_seg_operand
FN:325,_RNvMNtNtNtCs7xho1sTY3gk_10wonderswan3cpu5v30mz4utilNtB4_5V30MZ24resolve_register_operand
FN:354,_RNvMNtNtNtCs7xho1sTY3gk_10wonderswan3cpu5v30mz4utilNtB4_5V30MZ19resolve_mem_operand
FN:405,_RNvMNtNtNtCs7xho1sTY3gk_10wonderswan3cpu5v30mz4utilNtB4_5V30MZ15resolve_segment
FN:416,_RNvMNtNtNtCs7xho1sTY3gk_10wonderswan3cpu5v30mz4utilNtB4_5V30MZ15expect_op_bytes
FN:429,_RNvMNtNtNtCs7xho1sTY3gk_10wonderswan3cpu5v30mz4utilNtB4_5V30MZ20get_physical_address
FN:438,_RNvMNtNtNtCs7xho1sTY3gk_10wonderswan3cpu5v30mz4utilNtB4_5V30MZ14get_io_address
FN:454,_RNvMNtNtNtCs7xho1sTY3gk_10wonderswan3cpu5v30mz4utilNtB4_5V30MZ17get_stack_address
FN:458,_RNvMNtNtNtCs7xho1sTY3gk_10wonderswan3cpu5v30mz4utilNtB4_5V30MZ13apply_segment
FNDA:1,_RNvMNtNtNtCs7xho1sTY3gk_10wonderswan3cpu5v30mz4utilNtB4_5V30MZ17expect_extra_byte
FNDA:1,_RNvMNtNtNtCs7xho1sTY3gk_10wonderswan3cpu5v30mz4utilNtB4_5V30MZ17expect_extra_word
FNDA:0,_RNvMNtNtNtCs7xho1sTY3gk_10wonderswan3cpu5v30mz4utilNtB4_5V30MZ18update_flags_sub_8
FNDA:0,_RNvMNtNtNtCs7xho1sTY3gk_10wonderswan3cpu5v30mz4utilNtB4_5V30MZ19update_flags_sub_16
FNDA:6,_RNvMNtNtNtCs7xho1sTY3gk_10wonderswan3cpu5v30mz4utilNtB4_5V30MZ18update_flags_add_8
FNDA:6,_RNvMNtNtNtCs7xho1sTY3gk_10wonderswan3cpu5v30mz4utilNtB4_5V30MZ19update_flags_add_16
FNDA:9,_RNvMNtNtNtCs7xho1sTY3gk_10wonderswan3cpu5v30mz4utilNtB4_5V30MZ4push
FNDA:65539,_RNvMNtNtNtCs7xho1sTY3gk_10wonderswan3cpu5v30mz4utilNtB4_5V30MZ3pop
FNDA:11,_RNvMNtNtNtCs7xho1sTY3gk_10wonderswan3cpu5v30mz4utilNtB4_5V30MZ23load_register_immediate
FNDA:46,_RNvMNtNtNtCs7xho1sTY3gk_10wonderswan3cpu5v30mz4utilNtB4_5V30MZ14resolve_src_16
FNDA:29,_RNvMNtNtNtCs7xho1sTY3gk_10wonderswan3cpu5v30mz4utilNtB4_5V30MZ13resolve_src_8
FNDA:10,_RNvMNtNtNtCs7xho1sTY3gk_10wonderswan3cpu5v30mz4utilNtB4_5V30MZ18resolve_mem_src_32
FNDA:24,_RNvMNtNtNtCs7xho1sTY3gk_10wonderswan3cpu5v30mz4utilNtB4_5V30MZ18resolve_mem_src_16
FNDA:13,_RNvMNtNtNtCs7xho1sTY3gk_10wonderswan3cpu5v30mz4utilNtB4_5V30MZ17resolve_mem_src_8
FNDA:20,_RNvMNtNtNtCs7xho1sTY3gk_10wonderswan3cpu5v30mz4utilNtB4_5V30MZ20write_src_to_dest_16
FNDA:14,_RNvMNtNtNtCs7xho1sTY3gk_10wonderswan3cpu5v30mz4utilNtB4_5V30MZ19write_src_to_dest_8
FNDA:7,_RNvMNtNtNtCs7xho1sTY3gk_10wonderswan3cpu5v30mz4utilNtB4_5V30MZ22get_direct_mem_address
FNDA:9,_RNvMNtNtNtCs7xho1sTY3gk_10wonderswan3cpu5v30mz4utilNtB4_5V30MZ20write_mem_operand_16
FNDA:6,_RNvMNtNtNtCs7xho1sTY3gk_10wonderswan3cpu5v30mz4utilNtB4_5V30MZ19write_mem_operand_8
FNDA:7,_RNvMNtNtNtCs7xho1sTY3gk_10wonderswan3cpu5v30mz4utilNtB4_5V30MZ20write_reg_operand_16
FNDA:5,_RNvMNtNtNtCs7xho1sTY3gk_10wonderswan3cpu5v30mz4utilNtB4_5V30MZ19write_reg_operand_8
FNDA:3,_RNvMNtNtNtCs7xho1sTY3gk_10wonderswan3cpu5v30mz4utilNtB4_5V30MZ20write_to_seg_operand
FNDA:61,_RNvMNtNtNtCs7xho1sTY3gk_10wonderswan3cpu5v30mz4utilNtB4_5V30MZ24resolve_register_operand
FNDA:70,_RNvMNtNtNtCs7xho1sTY3gk_10wonderswan3cpu5v30mz4utilNtB4_5V30MZ19resolve_mem_operand
FNDA:7,_RNvMNtNtNtCs7xho1sTY3gk_10wonderswan3cpu5v30mz4utilNtB4_5V30MZ15resolve_segment
FNDA:65837,_RNvMNtNtNtCs7xho1sTY3gk_10wonderswan3cpu5v30mz4utilNtB4_5V30MZ15expect_op_bytes
FNDA:56,_RNvMNtNtNtCs7xho1sTY3gk_10wonderswan3cpu5v30mz4utilNtB4_5V30MZ20get_physical_address
FNDA:10,_RNvMNtNtNtCs7xho1sTY3gk_10wonderswan3cpu5v30mz4utilNtB4_5V30MZ14get_io_address
FNDA:65557,_RNvMNtNtNtCs7xho1sTY3gk_10wonderswan3cpu5v30mz4utilNtB4_5V30MZ17get_stack_address
FNDA:65697,_RNvMNtNtNtCs7xho1sTY3gk_10wonderswan3cpu5v30mz4utilNtB4_5V30MZ13apply_segment
FNF:30
FNH:28
DA:8,1
DA:9,1
DA:10,1
DA:11,1
DA:12,1
DA:14,1
DA:15,1
DA:16,1
DA:17,1
DA:18,1
DA:20,0
DA:21,0
DA:22,0
DA:23,0
DA:24,0
DA:25,0
DA:26,0
DA:27,0
DA:28,0
DA:29,0
DA:30,0
DA:32,0
DA:33,0
DA:34,0
DA:35,0
DA:36,0
DA:37,0
DA:38,0
DA:39,0
DA:40,0
DA:41,0
DA:42,0
DA:44,6
DA:45,6
DA:46,6
DA:47,6
DA:48,6
DA:49,6
DA:50,6
DA:51,6
DA:52,6
DA:53,6
DA:55,6
DA:56,6
DA:57,6
DA:58,6
DA:59,6
DA:60,6
DA:61,6
DA:62,6
DA:63,6
DA:64,6
DA:66,9
DA:67,9
DA:68,9
DA:69,9
DA:70,9
DA:72,65539
DA:73,65539
DA:74,65539
DA:75,65539
DA:76,65539
DA:78,11
DA:79,11
DA:81,1
DA:82,1
DA:83,1
DA:84,1
DA:85,1
DA:86,1
DA:87,0
DA:88,1
DA:89,0
DA:93,10
DA:94,10
DA:95,10
DA:96,10
DA:97,10
DA:98,10
DA:99,10
DA:100,0
DA:103,0
DA:106,11
DA:107,11
DA:109,46
DA:110,46
DA:112,24
DA:113,24
DA:114,24
DA:115,24
DA:118,11
DA:120,11
DA:121,11
DA:123,3
DA:125,2
DA:126,2
DA:129,3
DA:130,3
DA:131,3
DA:134,3
DA:135,3
DA:138,0
DA:140,0
DA:142,0
DA:144,46
DA:146,29
DA:147,29
DA:149,13
DA:151,13
DA:152,7
DA:155,9
DA:157,9
DA:158,9
DA:160,3
DA:162,2
DA:164,2
DA:167,2
DA:168,2
DA:170,0
DA:172,29
DA:174,10
DA:175,10
DA:177,10
DA:178,10
DA:179,10
DA:180,10
DA:182,0
DA:184,10
DA:186,24
DA:187,24
DA:189,24
DA:190,22
DA:191,22
DA:192,22
DA:194,2
DA:196,24
DA:198,13
DA:199,13
DA:201,13
DA:202,12
DA:203,12
DA:204,12
DA:206,1
DA:208,13
DA:210,20
DA:211,20
DA:212,8
DA:214,5
DA:216,5
DA:217,5
DA:219,3
DA:220,3
DA:222,1
DA:223,1
DA:225,0
DA:228,20
DA:229,20
DA:231,14
DA:232,14
DA:233,5
DA:235,5
DA:237,5
DA:238,5
DA:240,3
DA:242,1
DA:243,1
DA:245,0
DA:248,14
DA:249,14
DA:251,7
DA:252,7
DA:254,7
DA:255,7
DA:256,7
DA:258,9
DA:259,9
DA:260,9
DA:261,9
DA:263,9
DA:264,7
DA:265,7
DA:266,7
DA:267,7
DA:268,2
DA:269,2
DA:270,0
DA:274,9
DA:275,9
DA:277,6
DA:278,6
DA:279,6
DA:280,6
DA:282,6
DA:283,5
DA:284,5
DA:285,5
DA:286,5
DA:287,1
DA:288,0
DA:289,0
DA:290,1
DA:294,6
DA:295,6
DA:297,7
DA:298,7
DA:299,7
DA:300,0
DA:303,7
DA:304,7
DA:306,5
DA:307,5
DA:308,0
DA:309,0
DA:310,5
DA:313,5
DA:314,5
DA:316,3
DA:317,3
DA:318,3
DA:319,3
DA:320,3
DA:321,3
DA:322,3
DA:323,3
DA:325,61
DA:326,61
DA:327,17
DA:328,15
DA:329,2
DA:330,0
DA:331,0
DA:332,0
DA:333,0
DA:334,0
DA:335,0
DA:336,0
DA:338,44
DA:339,22
DA:340,8
DA:341,3
DA:342,2
DA:343,3
DA:344,2
DA:345,2
DA:346,2
DA:347,0
DA:349,0
DA:351,61
DA:354,70
DA:355,70
DA:356,70
DA:357,70
DA:358,70
DA:359,70
DA:360,70
DA:361,63
DA:362,63
DA:363,63
DA:364,63
DA:365,48
DA:367,48
DA:368,48
DA:369,15
DA:373,15
DA:374,4
DA:375,0
DA:376,0
DA:377,0
DA:378,11
DA:379,0
DA:380,0
DA:381,0
DA:382,0
DA:387,15
DA:388,11
DA:390,2
DA:392,2
DA:395,2
DA:397,2
DA:399,0
DA:402,15
DA:403,70
DA:405,7
DA:406,7
DA:407,7
DA:408,0
DA:409,0
DA:410,0
DA:411,0
DA:413,7
DA:416,65837
DA:417,65837
DA:418,65837
DA:419,65837
DA:420,65837
DA:421,0
DA:422,0
DA:423,0
DA:424,65837
DA:425,65837
DA:426,65837
DA:427,65837
DA:429,56
DA:430,56
DA:431,56
DA:432,0
DA:435,56
DA:436,56
DA:438,10
DA:439,10
DA:440,10
DA:443,5
DA:445,5
DA:448,5
DA:450,0
DA:452,10
DA:454,65557
DA:455,65557
DA:456,65557
DA:458,65697
DA:459,65697
DA:460,65697
DA:461,65697
DA:462,65697
BRF:0
BRH:0
LF:324
LH:259
end_of_record
SF:E:\Work\Programming\Rust\wonderswan\src\main.rs
FN:8,_RNvCs7xho1sTY3gk_10wonderswan4main
FNDA:0,_RNvCs7xho1sTY3gk_10wonderswan4main
FNF:1
FNH:0
DA:8,0
DA:9,0
DA:10,0
DA:11,0
BRF:0
BRH:0
LF:4
LH:0
end_of_record
SF:E:\Work\Programming\Rust\wonderswan\src\soc.rs
FN:18,_RNvYNtNtCs7xho1sTY3gk_10wonderswan3soc3SoCNtB4_6MemBus11read_mem_16B6_
FN:46,_RNvYpNtNtCs7xho1sTY3gk_10wonderswan3soc5IOBus11write_io_16B7_
FN:94,_RNvXs_NtCs7xho1sTY3gk_10wonderswan3socNtB4_3SoCNtB4_5IOBus8write_io
FN:53,_RNvXNtCs7xho1sTY3gk_10wonderswan3socNtB2_3SoCNtB2_6MemBus8read_mem
FN:69,_RNvXNtCs7xho1sTY3gk_10wonderswan3socNtB2_3SoCNtB2_6MemBus9write_mem
FN:81,_RNvXs_NtCs7xho1sTY3gk_10wonderswan3socNtB4_3SoCNtB4_5IOBus7read_io
FN:100,_RNvMs0_NtCs7xho1sTY3gk_10wonderswan3socNtB5_3SoC3new
FN:110,_RNvMs0_NtCs7xho1sTY3gk_10wonderswan3socNtB5_3SoC4tick
FN:156,_RNvMs0_NtCs7xho1sTY3gk_10wonderswan3socNtB5_3SoC10color_mode
FN:18,_RNvYNtNtNtCs7xho1sTY3gk_10wonderswan3cpu5v30mz5V30MZNtNtB8_3soc6MemBus11read_mem_16B8_
FN:23,_RNvYNtNtNtCs7xho1sTY3gk_10wonderswan3cpu5v30mz5V30MZNtNtB8_3soc6MemBus12write_mem_16B8_
FN:29,_RNvYNtNtNtCs7xho1sTY3gk_10wonderswan3cpu5v30mz5V30MZNtNtB8_3soc6MemBus11read_mem_32B8_
FN:42,_RNvYNtNtNtCs7xho1sTY3gk_10wonderswan3cpu5v30mz5V30MZNtNtB8_3soc5IOBus10read_io_16B8_
FNDA:9,_RNvYNtNtCs7xho1sTY3gk_10wonderswan3soc3SoCNtB4_6MemBus11read_mem_16B6_
FNDA:0,_RNvYpNtNtCs7xho1sTY3gk_10wonderswan3soc5IOBus11write_io_16B7_
FNDA:0,_RNvXs_NtCs7xho1sTY3gk_10wonderswan3socNtB4_3SoCNtB4_5IOBus8write_io
FNDA:66185,_RNvXNtCs7xho1sTY3gk_10wonderswan3socNtB2_3SoCNtB2_6MemBus8read_mem
FNDA:40,_RNvXNtCs7xho1sTY3gk_10wonderswan3socNtB2_3SoCNtB2_6MemBus9write_mem
FNDA:49160,_RNvXs_NtCs7xho1sTY3gk_10wonderswan3socNtB4_3SoCNtB4_5IOBus7read_io
FNDA:39,_RNvMs0_NtCs7xho1sTY3gk_10wonderswan3socNtB5_3SoC3new
FNDA:75,_RNvMs0_NtCs7xho1sTY3gk_10wonderswan3socNtB5_3SoC4tick
FNDA:49152,_RNvMs0_NtCs7xho1sTY3gk_10wonderswan3socNtB5_3SoC10color_mode
FNDA:65564,_RNvYNtNtNtCs7xho1sTY3gk_10wonderswan3cpu5v30mz5V30MZNtNtB8_3soc6MemBus11read_mem_16B8_
FNDA:17,_RNvYNtNtNtCs7xho1sTY3gk_10wonderswan3cpu5v30mz5V30MZNtNtB8_3soc6MemBus12write_mem_16B8_
FNDA:10,_RNvYNtNtNtCs7xho1sTY3gk_10wonderswan3cpu5v30mz5V30MZNtNtB8_3soc6MemBus11read_mem_32B8_
FNDA:6,_RNvYNtNtNtCs7xho1sTY3gk_10wonderswan3cpu5v30mz5V30MZNtNtB8_3soc5IOBus10read_io_16B8_
FNF:12
FNH:10
DA:18,65573
DA:19,65573
DA:20,21
DA:21,65573
DA:23,17
DA:24,17
DA:25,17
DA:26,17
DA:27,17
DA:29,10
DA:30,10
DA:31,6
DA:32,2
DA:33,2
DA:34,2
DA:35,10
DA:42,6
DA:43,6
DA:44,6
DA:46,0
DA:47,0
DA:48,0
DA:49,0
DA:53,66185
DA:54,66185
DA:55,66185
DA:56,49152
DA:57,49152
DA:58,49152
DA:60,0
DA:63,0
DA:66,66185
DA:67,66185
DA:69,40
DA:70,40
DA:71,40
DA:72,0
DA:73,0
DA:74,0
DA:75,0
DA:77,40
DA:81,49160
DA:82,49160
DA:83,2
DA:84,49158
DA:85,49158
DA:86,49158
DA:87,49158
DA:88,0
DA:89,49158
DA:90,49158
DA:91,49158
DA:92,49160
DA:94,0
DA:95,0
DA:96,0
DA:100,39
DA:101,39
DA:102,39
DA:103,39
DA:104,39
DA:105,39
DA:106,39
DA:107,39
DA:108,39
DA:110,75
DA:111,75
DA:115,65723
DA:116,75
DA:117,600
DA:118,600
DA:119,600
DA:120,600
DA:121,75
DA:122,75
DA:123,65648
DA:124,65648
DA:125,65648
DA:126,65648
DA:127,6
DA:128,6
DA:129,6
DA:130,6
DA:131,6
DA:132,6
DA:133,6
DA:134,65642
DA:135,65642
DA:136,65642
DA:137,65567
DA:138,65567
DA:139,65567
DA:140,65567
DA:141,65567
DA:142,65567
DA:143,65567
DA:144,75
DA:145,75
DA:146,75
DA:147,75
DA:148,75
DA:149,75
DA:150,40
DA:151,40
DA:152,40
DA:153,52
DA:154,75
DA:156,49152
DA:157,49152
DA:158,49152
BRF:0
BRH:0
LF:110
LH:96
end_of_record
SF:E:\Work\Programming\Rust\wonderswan\src\soc\test.rs
FN:7,_RNvMNtNtCs7xho1sTY3gk_10wonderswan3soc4testNtB4_3SoC8set_wram
FN:14,_RNvMNtNtCs7xho1sTY3gk_10wonderswan3soc4testNtB4_3SoC6set_io
FN:21,_RNvMNtNtCs7xho1sTY3gk_10wonderswan3soc4testNtB4_3SoC7get_cpu
FN:26,_RNvMNtNtCs7xho1sTY3gk_10wonderswan3soc4testNtB4_3SoC8get_wram
FN:33,_RNvNtNtCs7xho1sTY3gk_10wonderswan3soc4tests_16test_io_open_bus
FNDA:38,_RNvMNtNtCs7xho1sTY3gk_10wonderswan3soc4testNtB4_3SoC8set_wram
FNDA:4,_RNvMNtNtCs7xho1sTY3gk_10wonderswan3soc4testNtB4_3SoC6set_io
FNDA:187,_RNvMNtNtCs7xho1sTY3gk_10wonderswan3soc4testNtB4_3SoC7get_cpu
FNDA:53,_RNvMNtNtCs7xho1sTY3gk_10wonderswan3soc4testNtB4_3SoC8get_wram
FNDA:1,_RNvNtNtCs7xho1sTY3gk_10wonderswan3soc4tests_16test_io_open_bus
FNF:5
FNH:5
DA:7,38
DA:8,197
DA:9,197
DA:10,197
DA:11,38
DA:14,4
DA:15,8
DA:16,8
DA:17,8
DA:18,4
DA:21,187
DA:22,187
DA:23,187
DA:26,53
DA:27,53
DA:28,53
DA:33,1
DA:34,1
DA:35,1
DA:36,1
DA:37,1
BRF:0
BRH:0
LF:21
LH:21
end_of_record